target datalayout = "e-m:e-p270:32:32-p271:32:32-p272:64:64-i64:64-i128:128-f80:128-n8:16:32:64-S128"
target triple = "x86_64-pc-linux-gnu"

%struct.uv_stat_t = type { i64, i64, i64, i64, i64, i64, i64, i64, i64, i64, i64, i64, %struct.uv_timespec_t, %struct.uv_timespec_t, %struct.uv_timespec_t, %struct.uv_timespec_t }
%struct.uv_timespec_t = type { i64, i64 }
%struct.uv__statx = type { i32, i32, i64, i32, i32, i32, i16, i16, i64, i64, i64, i64, %struct.uv__statx_timestamp, %struct.uv__statx_timestamp, %struct.uv__statx_timestamp, %struct.uv__statx_timestamp, i32, i32, i32, i32, [14 x i64] }
%struct.uv__statx_timestamp = type { i64, i32, i32 }

; Function Attrs: inlinehint nounwind willreturn memory(none) uwtable
define available_externally i64 @gnu_dev_makedev(i32 noundef %0, i32 noundef %1) #8 {
  %3 = alloca i32, align 4
  %4 = alloca i32, align 4
  %5 = alloca i64, align 8
  store i32 %0, ptr %3, align 4
  store i32 %1, ptr %4, align 4
  call void @llvm.lifetime.start.p0(i64 8, ptr %5) #12
  %6 = load i32, ptr %3, align 4
  %7 = and i32 %6, 4095
  %8 = zext i32 %7 to i64
  %9 = shl i64 %8, 8
  store i64 %9, ptr %5, align 8
  %10 = load i32, ptr %3, align 4
  %11 = and i32 %10, -4096
  %12 = zext i32 %11 to i64
  %13 = shl i64 %12, 32
  %14 = load i64, ptr %5, align 8
  %15 = or i64 %14, %13
  store i64 %15, ptr %5, align 8
  %16 = load i32, ptr %4, align 4
  %17 = and i32 %16, 255
  %18 = zext i32 %17 to i64
  %19 = shl i64 %18, 0
  %20 = load i64, ptr %5, align 8
  %21 = or i64 %20, %19
  store i64 %21, ptr %5, align 8
  %22 = load i32, ptr %4, align 4
  %23 = and i32 %22, -256
  %24 = zext i32 %23 to i64
  %25 = shl i64 %24, 12
  %26 = load i64, ptr %5, align 8
  %27 = or i64 %26, %25
  store i64 %27, ptr %5, align 8
  %28 = load i64, ptr %5, align 8
  call void @llvm.lifetime.end.p0(i64 8, ptr %5) #12
  ret i64 %28
}

; Function Attrs: nounwind uwtable
define hidden void @uv__statx_to_stat(ptr noundef %0, ptr noundef %1) #0 {
  %3 = alloca ptr, align 8
  %4 = alloca ptr, align 8
  store ptr %0, ptr %3, align 8
  store ptr %1, ptr %4, align 8
  %5 = load ptr, ptr %3, align 8
  %6 = getelementptr inbounds nuw %struct.uv__statx, ptr %5, i32 0, i32 18
  %7 = load i32, ptr %6, align 8
  %8 = load ptr, ptr %3, align 8
  %9 = getelementptr inbounds nuw %struct.uv__statx, ptr %8, i32 0, i32 19
  %10 = load i32, ptr %9, align 4
  %11 = call i64 @gnu_dev_makedev(i32 noundef %7, i32 noundef %10) #14
  %12 = load ptr, ptr %4, align 8
  %13 = getelementptr inbounds nuw %struct.uv_stat_t, ptr %12, i32 0, i32 0
  store i64 %11, ptr %13, align 8
  %14 = load ptr, ptr %3, align 8
  %15 = getelementptr inbounds nuw %struct.uv__statx, ptr %14, i32 0, i32 6
  %16 = load i16, ptr %15, align 4
  %17 = zext i16 %16 to i64
  %18 = load ptr, ptr %4, align 8
  %19 = getelementptr inbounds nuw %struct.uv_stat_t, ptr %18, i32 0, i32 1
  store i64 %17, ptr %19, align 8
  %20 = load ptr, ptr %3, align 8
  %21 = getelementptr inbounds nuw %struct.uv__statx, ptr %20, i32 0, i32 3
  %22 = load i32, ptr %21, align 8
  %23 = zext i32 %22 to i64
  %24 = load ptr, ptr %4, align 8
  %25 = getelementptr inbounds nuw %struct.uv_stat_t, ptr %24, i32 0, i32 2
  store i64 %23, ptr %25, align 8
  %26 = load ptr, ptr %3, align 8
  %27 = getelementptr inbounds nuw %struct.uv__statx, ptr %26, i32 0, i32 4
  %28 = load i32, ptr %27, align 4
  %29 = zext i32 %28 to i64
  %30 = load ptr, ptr %4, align 8
  %31 = getelementptr inbounds nuw %struct.uv_stat_t, ptr %30, i32 0, i32 3
  store i64 %29, ptr %31, align 8
  %32 = load ptr, ptr %3, align 8
  %33 = getelementptr inbounds nuw %struct.uv__statx, ptr %32, i32 0, i32 5
  %34 = load i32, ptr %33, align 8
  %35 = zext i32 %34 to i64
  %36 = load ptr, ptr %4, align 8
  %37 = getelementptr inbounds nuw %struct.uv_stat_t, ptr %36, i32 0, i32 4
  store i64 %35, ptr %37, align 8
  %38 = load ptr, ptr %3, align 8
  %39 = getelementptr inbounds nuw %struct.uv__statx, ptr %38, i32 0, i32 16
  %40 = load i32, ptr %39, align 8
  %41 = load ptr, ptr %3, align 8
  %42 = getelementptr inbounds nuw %struct.uv__statx, ptr %41, i32 0, i32 17
  %43 = load i32, ptr %42, align 4
  %44 = call i64 @gnu_dev_makedev(i32 noundef %40, i32 noundef %43) #14
  %45 = load ptr, ptr %4, align 8
  %46 = getelementptr inbounds nuw %struct.uv_stat_t, ptr %45, i32 0, i32 5
  store i64 %44, ptr %46, align 8
  %47 = load ptr, ptr %3, align 8
  %48 = getelementptr inbounds nuw %struct.uv__statx, ptr %47, i32 0, i32 8
  %49 = load i64, ptr %48, align 8
  %50 = load ptr, ptr %4, align 8
  %51 = getelementptr inbounds nuw %struct.uv_stat_t, ptr %50, i32 0, i32 6
  store i64 %49, ptr %51, align 8
  %52 = load ptr, ptr %3, align 8
  %53 = getelementptr inbounds nuw %struct.uv__statx, ptr %52, i32 0, i32 9
  %54 = load i64, ptr %53, align 8
  %55 = load ptr, ptr %4, align 8
  %56 = getelementptr inbounds nuw %struct.uv_stat_t, ptr %55, i32 0, i32 7
  store i64 %54, ptr %56, align 8
  %57 = load ptr, ptr %3, align 8
  %58 = getelementptr inbounds nuw %struct.uv__statx, ptr %57, i32 0, i32 1
  %59 = load i32, ptr %58, align 4
  %60 = zext i32 %59 to i64
  %61 = load ptr, ptr %4, align 8
  %62 = getelementptr inbounds nuw %struct.uv_stat_t, ptr %61, i32 0, i32 8
  store i64 %60, ptr %62, align 8
  %63 = load ptr, ptr %3, align 8
  %64 = getelementptr inbounds nuw %struct.uv__statx, ptr %63, i32 0, i32 10
  %65 = load i64, ptr %64, align 8
  %66 = load ptr, ptr %4, align 8
  %67 = getelementptr inbounds nuw %struct.uv_stat_t, ptr %66, i32 0, i32 9
  store i64 %65, ptr %67, align 8
  %68 = load ptr, ptr %3, align 8
  %69 = getelementptr inbounds nuw %struct.uv__statx, ptr %68, i32 0, i32 12
  %70 = getelementptr inbounds nuw %struct.uv__statx_timestamp, ptr %69, i32 0, i32 0
  %71 = load i64, ptr %70, align 8
  %72 = load ptr, ptr %4, align 8
  %73 = getelementptr inbounds nuw %struct.uv_stat_t, ptr %72, i32 0, i32 12
  %74 = getelementptr inbounds nuw %struct.uv_timespec_t, ptr %73, i32 0, i32 0
  store i64 %71, ptr %74, align 8
  %75 = load ptr, ptr %3, align 8
  %76 = getelementptr inbounds nuw %struct.uv__statx, ptr %75, i32 0, i32 12
  %77 = getelementptr inbounds nuw %struct.uv__statx_timestamp, ptr %76, i32 0, i32 1
  %78 = load i32, ptr %77, align 8
  %79 = zext i32 %78 to i64
  %80 = load ptr, ptr %4, align 8
  %81 = getelementptr inbounds nuw %struct.uv_stat_t, ptr %80, i32 0, i32 12
  %82 = getelementptr inbounds nuw %struct.uv_timespec_t, ptr %81, i32 0, i32 1
  store i64 %79, ptr %82, align 8
  %83 = load ptr, ptr %3, align 8
  %84 = getelementptr inbounds nuw %struct.uv__statx, ptr %83, i32 0, i32 15
  %85 = getelementptr inbounds nuw %struct.uv__statx_timestamp, ptr %84, i32 0, i32 0
  %86 = load i64, ptr %85, align 8
  %87 = load ptr, ptr %4, align 8
  %88 = getelementptr inbounds nuw %struct.uv_stat_t, ptr %87, i32 0, i32 13
  %89 = getelementptr inbounds nuw %struct.uv_timespec_t, ptr %88, i32 0, i32 0
  store i64 %86, ptr %89, align 8
  %90 = load ptr, ptr %3, align 8
  %91 = getelementptr inbounds nuw %struct.uv__statx, ptr %90, i32 0, i32 15
  %92 = getelementptr inbounds nuw %struct.uv__statx_timestamp, ptr %91, i32 0, i32 1
  %93 = load i32, ptr %92, align 8
  %94 = zext i32 %93 to i64
  %95 = load ptr, ptr %4, align 8
  %96 = getelementptr inbounds nuw %struct.uv_stat_t, ptr %95, i32 0, i32 13
  %97 = getelementptr inbounds nuw %struct.uv_timespec_t, ptr %96, i32 0, i32 1
  store i64 %94, ptr %97, align 8
  %98 = load ptr, ptr %3, align 8
  %99 = getelementptr inbounds nuw %struct.uv__statx, ptr %98, i32 0, i32 14
  %100 = getelementptr inbounds nuw %struct.uv__statx_timestamp, ptr %99, i32 0, i32 0
  %101 = load i64, ptr %100, align 8
  %102 = load ptr, ptr %4, align 8
  %103 = getelementptr inbounds nuw %struct.uv_stat_t, ptr %102, i32 0, i32 14
  %104 = getelementptr inbounds nuw %struct.uv_timespec_t, ptr %103, i32 0, i32 0
  store i64 %101, ptr %104, align 8
  %105 = load ptr, ptr %3, align 8
  %106 = getelementptr inbounds nuw %struct.uv__statx, ptr %105, i32 0, i32 14
  %107 = getelementptr inbounds nuw %struct.uv__statx_timestamp, ptr %106, i32 0, i32 1
  %108 = load i32, ptr %107, align 8
  %109 = zext i32 %108 to i64
  %110 = load ptr, ptr %4, align 8
  %111 = getelementptr inbounds nuw %struct.uv_stat_t, ptr %110, i32 0, i32 14
  %112 = getelementptr inbounds nuw %struct.uv_timespec_t, ptr %111, i32 0, i32 1
  store i64 %109, ptr %112, align 8
  %113 = load ptr, ptr %3, align 8
  %114 = getelementptr inbounds nuw %struct.uv__statx, ptr %113, i32 0, i32 13
  %115 = getelementptr inbounds nuw %struct.uv__statx_timestamp, ptr %114, i32 0, i32 0
  %116 = load i64, ptr %115, align 8
  %117 = load ptr, ptr %4, align 8
  %118 = getelementptr inbounds nuw %struct.uv_stat_t, ptr %117, i32 0, i32 15
  %119 = getelementptr inbounds nuw %struct.uv_timespec_t, ptr %118, i32 0, i32 0
  store i64 %116, ptr %119, align 8
  %120 = load ptr, ptr %3, align 8
  %121 = getelementptr inbounds nuw %struct.uv__statx, ptr %120, i32 0, i32 13
  %122 = getelementptr inbounds nuw %struct.uv__statx_timestamp, ptr %121, i32 0, i32 1
  %123 = load i32, ptr %122, align 8
  %124 = zext i32 %123 to i64
  %125 = load ptr, ptr %4, align 8
  %126 = getelementptr inbounds nuw %struct.uv_stat_t, ptr %125, i32 0, i32 15
  %127 = getelementptr inbounds nuw %struct.uv_timespec_t, ptr %126, i32 0, i32 1
  store i64 %124, ptr %127, align 8
  %128 = load ptr, ptr %4, align 8
  %129 = getelementptr inbounds nuw %struct.uv_stat_t, ptr %128, i32 0, i32 10
  store i64 0, ptr %129, align 8
  %130 = load ptr, ptr %4, align 8
  %131 = getelementptr inbounds nuw %struct.uv_stat_t, ptr %130, i32 0, i32 11
  store i64 0, ptr %131, align 8
  ret void
}