; Function Attrs: mustprogress nofree norecurse nosync nounwind willreturn memory(argmem: readwrite) uwtable
define hidden void @uv__statx_to_stat(ptr noundef readonly captures(none) %0, ptr noundef writeonly captures(none) initializes((0, 160)) %1) local_unnamed_addr #9 {
  %3 = getelementptr inbounds nuw i8, ptr %0, i64 136
  %4 = load i32, ptr %3, align 8
  %5 = getelementptr inbounds nuw i8, ptr %0, i64 140
  %6 = load i32, ptr %5, align 4
  %7 = shl i32 %4, 8
  %8 = and i32 %7, 1048320
  %9 = zext nneg i32 %8 to i64
  %10 = and i32 %4, -4096
  %11 = zext i32 %10 to i64
  %12 = shl nuw i64 %11, 32
  %13 = or disjoint i64 %12, %9
  %14 = and i32 %6, 255
  %15 = zext nneg i32 %14 to i64
  %16 = or disjoint i64 %13, %15
  %17 = and i32 %6, -256
  %18 = zext i32 %17 to i64
  %19 = shl nuw nsw i64 %18, 12
  %20 = or disjoint i64 %16, %19
  store i64 %20, ptr %1, align 8
  %21 = getelementptr inbounds nuw i8, ptr %0, i64 28
  %22 = load i16, ptr %21, align 4
  %23 = zext i16 %22 to i64
  %24 = getelementptr inbounds nuw i8, ptr %1, i64 8
  store i64 %23, ptr %24, align 8
  %25 = getelementptr inbounds nuw i8, ptr %0, i64 16
  %26 = load i32, ptr %25, align 8
  %27 = zext i32 %26 to i64
  %28 = getelementptr inbounds nuw i8, ptr %1, i64 16
  store i64 %27, ptr %28, align 8
  %29 = getelementptr inbounds nuw i8, ptr %0, i64 20
  %30 = load i32, ptr %29, align 4
  %31 = zext i32 %30 to i64
  %32 = getelementptr inbounds nuw i8, ptr %1, i64 24
  store i64 %31, ptr %32, align 8
  %33 = getelementptr inbounds nuw i8, ptr %0, i64 24
  %34 = load i32, ptr %33, align 8
  %35 = zext i32 %34 to i64
  %36 = getelementptr inbounds nuw i8, ptr %1, i64 32
  store i64 %35, ptr %36, align 8
  %37 = getelementptr inbounds nuw i8, ptr %0, i64 128
  %38 = load i32, ptr %37, align 8
  %39 = getelementptr inbounds nuw i8, ptr %0, i64 132
  %40 = load i32, ptr %39, align 4
  %41 = shl i32 %38, 8
  %42 = and i32 %41, 1048320
  %43 = zext nneg i32 %42 to i64
  %44 = and i32 %38, -4096
  %45 = zext i32 %44 to i64
  %46 = shl nuw i64 %45, 32
  %47 = or disjoint i64 %46, %43
  %48 = and i32 %40, 255
  %49 = zext nneg i32 %48 to i64
  %50 = or disjoint i64 %47, %49
  %51 = and i32 %40, -256
  %52 = zext i32 %51 to i64
  %53 = shl nuw nsw i64 %52, 12
  %54 = or disjoint i64 %50, %53
  %55 = getelementptr inbounds nuw i8, ptr %1, i64 40
  store i64 %54, ptr %55, align 8
  %56 = getelementptr inbounds nuw i8, ptr %0, i64 32
  %57 = load i64, ptr %56, align 8
  %58 = getelementptr inbounds nuw i8, ptr %1, i64 48
  store i64 %57, ptr %58, align 8
  %59 = getelementptr inbounds nuw i8, ptr %0, i64 40
  %60 = load i64, ptr %59, align 8
  %61 = getelementptr inbounds nuw i8, ptr %1, i64 56
  store i64 %60, ptr %61, align 8
  %62 = getelementptr inbounds nuw i8, ptr %0, i64 4
  %63 = load i32, ptr %62, align 4
  %64 = zext i32 %63 to i64
  %65 = getelementptr inbounds nuw i8, ptr %1, i64 64
  store i64 %64, ptr %65, align 8
  %66 = getelementptr inbounds nuw i8, ptr %0, i64 48
  %67 = load i64, ptr %66, align 8
  %68 = getelementptr inbounds nuw i8, ptr %1, i64 72
  store i64 %67, ptr %68, align 8
  %69 = getelementptr inbounds nuw i8, ptr %0, i64 64
  %70 = load i64, ptr %69, align 8
  %71 = getelementptr inbounds nuw i8, ptr %1, i64 96
  store i64 %70, ptr %71, align 8
  %72 = getelementptr inbounds nuw i8, ptr %0, i64 72
  %73 = load i32, ptr %72, align 8
  %74 = zext i32 %73 to i64
  %75 = getelementptr inbounds nuw i8, ptr %1, i64 104
  store i64 %74, ptr %75, align 8
  %76 = getelementptr inbounds nuw i8, ptr %0, i64 112
  %77 = load i64, ptr %76, align 8
  %78 = getelementptr inbounds nuw i8, ptr %1, i64 112
  store i64 %77, ptr %78, align 8
  %79 = getelementptr inbounds nuw i8, ptr %0, i64 120
  %80 = load i32, ptr %79, align 8
  %81 = zext i32 %80 to i64
  %82 = getelementptr inbounds nuw i8, ptr %1, i64 120
  store i64 %81, ptr %82, align 8
  %83 = getelementptr inbounds nuw i8, ptr %0, i64 96
  %84 = load i64, ptr %83, align 8
  %85 = getelementptr inbounds nuw i8, ptr %1, i64 128
  store i64 %84, ptr %85, align 8
  %86 = getelementptr inbounds nuw i8, ptr %0, i64 104
  %87 = load i32, ptr %86, align 8
  %88 = zext i32 %87 to i64
  %89 = getelementptr inbounds nuw i8, ptr %1, i64 136
  store i64 %88, ptr %89, align 8
  %90 = getelementptr inbounds nuw i8, ptr %0, i64 80
  %91 = load i64, ptr %90, align 8
  %92 = getelementptr inbounds nuw i8, ptr %1, i64 144
  store i64 %91, ptr %92, align 8
  %93 = getelementptr inbounds nuw i8, ptr %0, i64 88
  %94 = load i32, ptr %93, align 8
  %95 = zext i32 %94 to i64
  %96 = getelementptr inbounds nuw i8, ptr %1, i64 152
  store i64 %95, ptr %96, align 8
  %97 = getelementptr inbounds nuw i8, ptr %1, i64 80
  tail call void @llvm.memset.p0.i64(ptr noundef nonnull align 8 dereferenceable(16) %97, i8 0, i64 16, i1 false)
  ret void
}